target datalayout = "e-m:e-p270:32:32-p271:32:32-p272:64:64-i64:64-i128:128-f80:128-n8:16:32:64-S128"
target triple = "x86_64-pc-linux-gnu"

%struct.PROV_ECDSA_CTX = type { ptr, ptr, ptr, i32, i8, [256 x i8], i64, [50 x i8], ptr, ptr, i64, ptr, i64, ptr, ptr, i32 }

; Function Attrs: nounwind uwtable
define internal i32 @ecdsa_sigalg_signverify_init(ptr noundef %0, ptr noundef %1, ptr noundef %2, ptr noundef %3, ptr noundef %4, i32 noundef %5, ptr noundef %6) #0 {
  %8 = alloca i32, align 4
  %9 = alloca ptr, align 8
  %10 = alloca ptr, align 8
  %11 = alloca ptr, align 8
  %12 = alloca ptr, align 8
  %13 = alloca ptr, align 8
  %14 = alloca i32, align 4
  %15 = alloca ptr, align 8
  %16 = alloca ptr, align 8
  %17 = alloca i32, align 4
  store ptr %0, ptr %9, align 8, !tbaa !3
  store ptr %1, ptr %10, align 8, !tbaa !3
  store ptr %2, ptr %11, align 8, !tbaa !3
  store ptr %3, ptr %12, align 8, !tbaa !19
  store ptr %4, ptr %13, align 8, !tbaa !7
  store i32 %5, ptr %14, align 4, !tbaa !26
  store ptr %6, ptr %15, align 8, !tbaa !7
  call void @llvm.lifetime.start.p0(i64 8, ptr %16) #7
  %18 = load ptr, ptr %9, align 8, !tbaa !3
  store ptr %18, ptr %16, align 8, !tbaa !3
  %19 = call i32 @ossl_prov_is_running()
  %20 = icmp ne i32 %19, 0
  br i1 %20, label %22, label %21

21:                                               ; preds = %7
  store i32 0, ptr %8, align 4
  store i32 1, ptr %17, align 4
  br label %82

22:                                               ; preds = %7
  %23 = load ptr, ptr %9, align 8, !tbaa !3
  %24 = load ptr, ptr %10, align 8, !tbaa !3
  %25 = load ptr, ptr %11, align 8, !tbaa !3
  %26 = load ptr, ptr %12, align 8, !tbaa !19
  %27 = load i32, ptr %14, align 4, !tbaa !26
  %28 = load ptr, ptr %15, align 8, !tbaa !7
  %29 = call i32 @ecdsa_signverify_init(ptr noundef %23, ptr noundef %24, ptr noundef %25, ptr noundef %26, i32 noundef %27, ptr noundef %28)
  %30 = icmp ne i32 %29, 0
  br i1 %30, label %32, label %31

31:                                               ; preds = %22
  store i32 0, ptr %8, align 4
  store i32 1, ptr %17, align 4
  br label %82

32:                                               ; preds = %22
  %33 = load ptr, ptr %16, align 8, !tbaa !3
  %34 = load ptr, ptr %13, align 8, !tbaa !7
  %35 = load ptr, ptr %15, align 8, !tbaa !7
  %36 = call i32 @ecdsa_setup_md(ptr noundef %33, ptr noundef %34, ptr noundef null, ptr noundef %35)
  %37 = icmp ne i32 %36, 0
  br i1 %37, label %39, label %38

38:                                               ; preds = %32
  store i32 0, ptr %8, align 4
  store i32 1, ptr %17, align 4
  br label %82

39:                                               ; preds = %32
  %40 = load ptr, ptr %16, align 8, !tbaa !3
  %41 = getelementptr inbounds nuw %struct.PROV_ECDSA_CTX, ptr %40, i32 0, i32 4
  %42 = load i8, ptr %41, align 4
  %43 = and i8 %42, -2
  %44 = or i8 %43, 1
  store i8 %44, ptr %41, align 4
  %45 = load ptr, ptr %16, align 8, !tbaa !3
  %46 = getelementptr inbounds nuw %struct.PROV_ECDSA_CTX, ptr %45, i32 0, i32 4
  %47 = load i8, ptr %46, align 4
  %48 = and i8 %47, -3
  %49 = or i8 %48, 0
  store i8 %49, ptr %46, align 4
  %50 = load ptr, ptr %16, align 8, !tbaa !3
  %51 = getelementptr inbounds nuw %struct.PROV_ECDSA_CTX, ptr %50, i32 0, i32 9
  %52 = load ptr, ptr %51, align 8, !tbaa !25
  %53 = icmp eq ptr %52, null
  br i1 %53, label %54, label %64

54:                                               ; preds = %39
  %55 = call ptr @EVP_MD_CTX_new()
  %56 = load ptr, ptr %16, align 8, !tbaa !3
  %57 = getelementptr inbounds nuw %struct.PROV_ECDSA_CTX, ptr %56, i32 0, i32 9
  store ptr %55, ptr %57, align 8, !tbaa !25
  %58 = load ptr, ptr %16, align 8, !tbaa !3
  %59 = getelementptr inbounds nuw %struct.PROV_ECDSA_CTX, ptr %58, i32 0, i32 9
  %60 = load ptr, ptr %59, align 8, !tbaa !25
  %61 = icmp eq ptr %60, null
  br i1 %61, label %62, label %63

62:                                               ; preds = %54
  br label %76

63:                                               ; preds = %54
  br label %64

64:                                               ; preds = %63, %39
  %65 = load ptr, ptr %16, align 8, !tbaa !3
  %66 = getelementptr inbounds nuw %struct.PROV_ECDSA_CTX, ptr %65, i32 0, i32 9
  %67 = load ptr, ptr %66, align 8, !tbaa !25
  %68 = load ptr, ptr %16, align 8, !tbaa !3
  %69 = getelementptr inbounds nuw %struct.PROV_ECDSA_CTX, ptr %68, i32 0, i32 8
  %70 = load ptr, ptr %69, align 8, !tbaa !27
  %71 = load ptr, ptr %12, align 8, !tbaa !19
  %72 = call i32 @EVP_DigestInit_ex2(ptr noundef %67, ptr noundef %70, ptr noundef %71)
  %73 = icmp ne i32 %72, 0
  br i1 %73, label %75, label %74

74:                                               ; preds = %64
  br label %76

75:                                               ; preds = %64
  store i32 1, ptr %8, align 4
  store i32 1, ptr %17, align 4
  br label %82

76:                                               ; preds = %74, %62
  %77 = load ptr, ptr %16, align 8, !tbaa !3
  %78 = getelementptr inbounds nuw %struct.PROV_ECDSA_CTX, ptr %77, i32 0, i32 9
  %79 = load ptr, ptr %78, align 8, !tbaa !25
  call void @EVP_MD_CTX_free(ptr noundef %79)
  %80 = load ptr, ptr %16, align 8, !tbaa !3
  %81 = getelementptr inbounds nuw %struct.PROV_ECDSA_CTX, ptr %80, i32 0, i32 9
  store ptr null, ptr %81, align 8, !tbaa !25
  store i32 0, ptr %8, align 4
  store i32 1, ptr %17, align 4
  br label %82

82:                                               ; preds = %76, %75, %38, %31, %21
  call void @llvm.lifetime.end.p0(i64 8, ptr %16) #7
  %83 = load i32, ptr %8, align 4
  ret i32 %83
}