; Function Attrs: nounwind uwtable
define internal fastcc range(i32 0, 2) i32 @ecdsa_sigalg_signverify_init(ptr noundef %0, ptr noundef %1, ptr noundef %2, ptr noundef %3, i32 noundef range(i32 16, 32769) %4) unnamed_addr #0 {
  %6 = tail call i32 @ossl_prov_is_running() #8
  %.not = icmp eq i32 %6, 0
  br i1 %.not, label %29, label %7

7:                                                ; preds = %5
  %8 = tail call fastcc i32 @ecdsa_signverify_init(ptr noundef %0, ptr noundef %1, ptr noundef nonnull @ecdsa_sigalg_set_ctx_params, ptr noundef %2, i32 noundef %4)
  %.not20 = icmp eq i32 %8, 0
  br i1 %.not20, label %29, label %9

9:                                                ; preds = %7
  %10 = tail call fastcc i32 @ecdsa_setup_md(ptr noundef %0, ptr noundef %3, ptr noundef null)
  %.not21 = icmp eq i32 %10, 0
  br i1 %.not21, label %29, label %11

11:                                               ; preds = %9
  %12 = getelementptr inbounds nuw i8, ptr %0, i64 28
  %13 = load i8, ptr %12, align 4
  %14 = and i8 %13, -4
  %15 = or disjoint i8 %14, 1
  store i8 %15, ptr %12, align 4
  %16 = getelementptr inbounds nuw i8, ptr %0, i64 360
  %17 = load ptr, ptr %16, align 8, !tbaa !18
  %18 = icmp eq ptr %17, null
  br i1 %18, label %19, label %22

19:                                               ; preds = %11
  %20 = tail call ptr @EVP_MD_CTX_new() #8
  store ptr %20, ptr %16, align 8, !tbaa !18
  %21 = icmp eq ptr %20, null
  br i1 %21, label %27, label %22

22:                                               ; preds = %19, %11
  %23 = phi ptr [ %20, %19 ], [ %17, %11 ]
  %24 = getelementptr inbounds nuw i8, ptr %0, i64 352
  %25 = load ptr, ptr %24, align 8, !tbaa !28
  %26 = tail call i32 @EVP_DigestInit_ex2(ptr noundef nonnull %23, ptr noundef %25, ptr noundef %2) #8
  %.not22 = icmp eq i32 %26, 0
  br i1 %.not22, label %._crit_edge, label %29

._crit_edge:                                      ; preds = %22
  %.pre = load ptr, ptr %16, align 8, !tbaa !18
  br label %27

27:                                               ; preds = %._crit_edge, %19
  %28 = phi ptr [ %.pre, %._crit_edge ], [ null, %19 ]
  tail call void @EVP_MD_CTX_free(ptr noundef %28) #8
  store ptr null, ptr %16, align 8, !tbaa !18
  br label %29

29:                                               ; preds = %22, %9, %7, %5, %27
  %.0 = phi i32 [ 0, %27 ], [ 0, %5 ], [ 0, %7 ], [ 0, %9 ], [ 1, %22 ]
  ret i32 %.0
}